target datalayout = "e-m:e-p270:32:32-p271:32:32-p272:64:64-i64:64-i128:128-f80:128-n8:16:32:64-S128"
target triple = "x86_64-pc-linux-gnu"

%"class.std::shared_ptr" = type { %"class.std::__shared_ptr" }
%"class.std::__shared_ptr" = type { ptr, %"class.std::__shared_count" }
%"class.std::__shared_count" = type { ptr }

; Function Attrs: mustprogress uwtable
define linkonce_odr void @_ZNSt10shared_ptrIKN10open_spiel4GameEEC2INS0_8quoridor12QuoridorGameEvEEPT_(ptr noundef nonnull align 8 dereferenceable(16) %0, ptr noundef %1) unnamed_addr #4 comdat align 2 {
  %3 = alloca ptr, align 8
  %4 = alloca ptr, align 8
  store ptr %0, ptr %3, align 8
  store ptr %1, ptr %4, align 8
  %5 = load ptr, ptr %3, align 8
  %6 = load ptr, ptr %4, align 8
  call void @_ZNSt12__shared_ptrIKN10open_spiel4GameELN9__gnu_cxx12_Lock_policyE2EEC2INS0_8quoridor12QuoridorGameEvEEPT_(ptr noundef nonnull align 8 dereferenceable(16) %5, ptr noundef %6)
  ret void
}

; Function Attrs: mustprogress uwtable
define internal void @_ZN10open_spiel8quoridor12_GLOBAL__N_17FactoryERKSt3mapINSt7__cxx1112basic_stringIcSt11char_traitsIcESaIcEEENS_13GameParameterESt4lessIS8_ESaISt4pairIKS8_S9_EEE(ptr dead_on_unwind noalias writable sret(%"class.std::shared_ptr") align 8 %0, ptr noundef nonnull align 8 dereferenceable(48) %1) #4 personality ptr @__gxx_personality_v0 {
  %3 = alloca ptr, align 8
  %4 = alloca ptr, align 8
  %5 = alloca ptr, align 8
  %6 = alloca i32, align 4
  store ptr %0, ptr %3, align 8
  store ptr %1, ptr %4, align 8
  %7 = call noalias noundef nonnull ptr @_Znwm(i64 noundef 296) #16
  %8 = load ptr, ptr %4, align 8
  invoke void @_ZN10open_spiel8quoridor12QuoridorGameC1ERKSt3mapINSt7__cxx1112basic_stringIcSt11char_traitsIcESaIcEEENS_13GameParameterESt4lessIS8_ESaISt4pairIKS8_S9_EEE(ptr noundef nonnull align 8 dereferenceable(296) %7, ptr noundef nonnull align 8 dereferenceable(48) %8)
          to label %9 unwind label %10

9:                                                ; preds = %2
  call void @_ZNSt10shared_ptrIKN10open_spiel4GameEEC2INS0_8quoridor12QuoridorGameEvEEPT_(ptr noundef nonnull align 8 dereferenceable(16) %0, ptr noundef %7)
  ret void

10:                                               ; preds = %2
  %11 = landingpad { ptr, i32 }
          cleanup
  %12 = extractvalue { ptr, i32 } %11, 0
  store ptr %12, ptr %5, align 8
  %13 = extractvalue { ptr, i32 } %11, 1
  store i32 %13, ptr %6, align 4
  call void @_ZdlPvm(ptr noundef %7, i64 noundef 296) #17
  br label %14

14:                                               ; preds = %10
  %15 = load ptr, ptr %5, align 8
  %16 = load i32, ptr %6, align 4
  %17 = insertvalue { ptr, i32 } poison, ptr %15, 0
  %18 = insertvalue { ptr, i32 } %17, i32 %16, 1
  resume { ptr, i32 } %18
}